target datalayout = "e-m:e-p270:32:32-p271:32:32-p272:64:64-i64:64-i128:128-f80:128-n8:16:32:64-S128"
target triple = "x86_64-pc-linux-gnu"

%struct.Gia_Man_t_ = type { ptr, ptr, i32, i32, i32, i32, ptr, ptr, i32, i32, i32, ptr, ptr, %struct.Vec_Int_t_, %struct.Vec_Int_t_, i32, i32, i32, %struct.Vec_Int_t_, ptr, ptr, ptr, i32, i32, i32, i32, ptr, ptr, ptr, ptr, ptr, i32, i32, ptr, i32, ptr, ptr, ptr, ptr, ptr, ptr, ptr, ptr, ptr, ptr, ptr, ptr, ptr, ptr, ptr, ptr, ptr, ptr, %struct.Vec_Int_t_, %struct.Vec_Int_t_, ptr, ptr, ptr, ptr, ptr, ptr, ptr, ptr, ptr, ptr, ptr, ptr, ptr, ptr, ptr, ptr, ptr, ptr, ptr, ptr, ptr, i32, float, float, ptr, ptr, i32, ptr, ptr, ptr, ptr, ptr, ptr, ptr, ptr, ptr, ptr, ptr, ptr, ptr, ptr, ptr, i64, i64, ptr, ptr, i32, i32, i32, i32, i32, i32, i32, i32, i32, i32, i32, i32, ptr, ptr, ptr, ptr, ptr, ptr, ptr, ptr, i32, i32, i32, ptr, i32, i32, ptr, ptr, ptr, ptr, ptr, ptr, i32, i32, ptr, %struct.Vec_Int_t_, %struct.Vec_Int_t_, %struct.Vec_Int_t_, ptr, ptr, ptr }
%struct.Vec_Int_t_ = type { i32, i32, ptr }
%struct.Gia_Obj_t_ = type <{ i64, i32 }>
%struct.Gia_Rpr_t_ = type { i32 }

; Function Attrs: nounwind uwtable
define internal i32 @Gia_ObjIsCi(ptr noundef %0) #0 {
  %2 = alloca ptr, align 8
  store ptr %0, ptr %2, align 8
  %3 = load ptr, ptr %2, align 8
  %4 = load i64, ptr %3, align 4
  %5 = lshr i64 %4, 31
  %6 = and i64 %5, 1
  %7 = trunc i64 %6 to i32
  %8 = icmp ne i32 %7, 0
  br i1 %8, label %9, label %15

9:                                                ; preds = %1
  %10 = load ptr, ptr %2, align 8
  %11 = load i64, ptr %10, align 4
  %12 = and i64 %11, 536870911
  %13 = trunc i64 %12 to i32
  %14 = icmp eq i32 %13, 536870911
  br label %15

15:                                               ; preds = %9, %1
  %16 = phi i1 [ false, %1 ], [ %14, %9 ]
  %17 = zext i1 %16 to i32
  ret i32 %17
}

; Function Attrs: nounwind uwtable
define internal i32 @Gia_ObjIsAnd(ptr noundef %0) #0 {
  %2 = alloca ptr, align 8
  store ptr %0, ptr %2, align 8
  %3 = load ptr, ptr %2, align 8
  %4 = load i64, ptr %3, align 4
  %5 = lshr i64 %4, 31
  %6 = and i64 %5, 1
  %7 = trunc i64 %6 to i32
  %8 = icmp ne i32 %7, 0
  br i1 %8, label %15, label %9

9:                                                ; preds = %1
  %10 = load ptr, ptr %2, align 8
  %11 = load i64, ptr %10, align 4
  %12 = and i64 %11, 536870911
  %13 = trunc i64 %12 to i32
  %14 = icmp ne i32 %13, 536870911
  br label %15

15:                                               ; preds = %9, %1
  %16 = phi i1 [ false, %1 ], [ %14, %9 ]
  %17 = zext i1 %16 to i32
  ret i32 %17
}

; Function Attrs: nounwind uwtable
define internal i32 @Vec_IntEntry(ptr noundef %0, i32 noundef %1) #0 {
  %3 = alloca ptr, align 8
  %4 = alloca i32, align 4
  store ptr %0, ptr %3, align 8
  store i32 %1, ptr %4, align 4
  %5 = load ptr, ptr %3, align 8
  %6 = getelementptr inbounds %struct.Vec_Int_t_, ptr %5, i32 0, i32 2
  %7 = load ptr, ptr %6, align 8
  %8 = load i32, ptr %4, align 4
  %9 = sext i32 %8 to i64
  %10 = getelementptr inbounds i32, ptr %7, i64 %9
  %11 = load i32, ptr %10, align 4
  ret i32 %11
}

; Function Attrs: nounwind uwtable
define internal i32 @Vec_IntSize(ptr noundef %0) #0 {
  %2 = alloca ptr, align 8
  store ptr %0, ptr %2, align 8
  %3 = load ptr, ptr %2, align 8
  %4 = getelementptr inbounds %struct.Vec_Int_t_, ptr %3, i32 0, i32 1
  %5 = load i32, ptr %4, align 4
  ret i32 %5
}

; Function Attrs: nounwind uwtable
define internal i32 @Gia_ObjRepr(ptr noundef %0, i32 noundef %1) #0 {
  %3 = alloca ptr, align 8
  %4 = alloca i32, align 4
  store ptr %0, ptr %3, align 8
  store i32 %1, ptr %4, align 4
  %5 = load ptr, ptr %3, align 8
  %6 = getelementptr inbounds %struct.Gia_Man_t_, ptr %5, i32 0, i32 27
  %7 = load ptr, ptr %6, align 8
  %8 = load i32, ptr %4, align 4
  %9 = sext i32 %8 to i64
  %10 = getelementptr inbounds %struct.Gia_Rpr_t_, ptr %7, i64 %9
  %11 = load i32, ptr %10, align 4
  %12 = and i32 %11, 268435455
  ret i32 %12
}

; Function Attrs: nounwind uwtable
define internal i32 @Gia_ObjIsCand(ptr noundef %0) #0 {
  %2 = alloca ptr, align 8
  store ptr %0, ptr %2, align 8
  %3 = load ptr, ptr %2, align 8
  %4 = call i32 @Gia_ObjIsAnd(ptr noundef %3)
  %5 = icmp ne i32 %4, 0
  br i1 %5, label %10, label %6

6:                                                ; preds = %1
  %7 = load ptr, ptr %2, align 8
  %8 = call i32 @Gia_ObjIsCi(ptr noundef %7)
  %9 = icmp ne i32 %8, 0
  br label %10

10:                                               ; preds = %6, %1
  %11 = phi i1 [ true, %1 ], [ %9, %6 ]
  %12 = zext i1 %11 to i32
  ret i32 %12
}

; Function Attrs: nounwind uwtable
define internal ptr @Gia_ManObj(ptr noundef %0, i32 noundef %1) #0 {
  %3 = alloca ptr, align 8
  %4 = alloca i32, align 4
  store ptr %0, ptr %3, align 8
  store i32 %1, ptr %4, align 4
  %5 = load ptr, ptr %3, align 8
  %6 = getelementptr inbounds %struct.Gia_Man_t_, ptr %5, i32 0, i32 6
  %7 = load ptr, ptr %6, align 8
  %8 = load i32, ptr %4, align 4
  %9 = sext i32 %8 to i64
  %10 = getelementptr inbounds %struct.Gia_Obj_t_, ptr %7, i64 %9
  ret ptr %10
}

; Function Attrs: nounwind uwtable
define internal ptr @Gia_ObjFanin0(ptr noundef %0) #0 {
  %2 = alloca ptr, align 8
  store ptr %0, ptr %2, align 8
  %3 = load ptr, ptr %2, align 8
  %4 = load ptr, ptr %2, align 8
  %5 = load i64, ptr %4, align 4
  %6 = and i64 %5, 536870911
  %7 = trunc i64 %6 to i32
  %8 = sext i32 %7 to i64
  %9 = sub i64 0, %8
  %10 = getelementptr inbounds %struct.Gia_Obj_t_, ptr %3, i64 %9
  ret ptr %10
}

; Function Attrs: nounwind uwtable
define internal ptr @Gia_ManCo(ptr noundef %0, i32 noundef %1) #0 {
  %3 = alloca ptr, align 8
  %4 = alloca i32, align 4
  store ptr %0, ptr %3, align 8
  store i32 %1, ptr %4, align 4
  %5 = load ptr, ptr %3, align 8
  %6 = load ptr, ptr %3, align 8
  %7 = getelementptr inbounds %struct.Gia_Man_t_, ptr %6, i32 0, i32 12
  %8 = load ptr, ptr %7, align 8
  %9 = load i32, ptr %4, align 4
  %10 = call i32 @Vec_IntEntry(ptr noundef %8, i32 noundef %9)
  %11 = call ptr @Gia_ManObj(ptr noundef %5, i32 noundef %10)
  ret ptr %11
}

; Function Attrs: nounwind uwtable
define internal i32 @Gia_ManPoNum(ptr noundef %0) #0 {
  %2 = alloca ptr, align 8
  store ptr %0, ptr %2, align 8
  %3 = load ptr, ptr %2, align 8
  %4 = getelementptr inbounds %struct.Gia_Man_t_, ptr %3, i32 0, i32 12
  %5 = load ptr, ptr %4, align 8
  %6 = call i32 @Vec_IntSize(ptr noundef %5)
  %7 = load ptr, ptr %2, align 8
  %8 = getelementptr inbounds %struct.Gia_Man_t_, ptr %7, i32 0, i32 2
  %9 = load i32, ptr %8, align 8
  %10 = sub nsw i32 %6, %9
  ret i32 %10
}

; Function Attrs: nounwind uwtable
define i32 @Cec_ManCheckNonTrivialCands(ptr noundef %0) #0 {
  %2 = alloca i32, align 4
  %3 = alloca ptr, align 8
  %4 = alloca ptr, align 8
  %5 = alloca i32, align 4
  %6 = alloca i32, align 4
  store ptr %0, ptr %3, align 8
  store i32 0, ptr %6, align 4
  %7 = load ptr, ptr %3, align 8
  %8 = getelementptr inbounds %struct.Gia_Man_t_, ptr %7, i32 0, i32 27
  %9 = load ptr, ptr %8, align 8
  %10 = icmp eq ptr %9, null
  br i1 %10, label %11, label %12

11:                                               ; preds = %1
  store i32 0, ptr %2, align 4
  br label %93

12:                                               ; preds = %1
  store i32 0, ptr %5, align 4
  br label %13

13:                                               ; preds = %31, %12
  %14 = load i32, ptr %5, align 4
  %15 = load ptr, ptr %3, align 8
  %16 = call i32 @Gia_ManPoNum(ptr noundef %15)
  %17 = icmp slt i32 %14, %16
  br i1 %17, label %18, label %23

18:                                               ; preds = %13
  %19 = load ptr, ptr %3, align 8
  %20 = load i32, ptr %5, align 4
  %21 = call ptr @Gia_ManCo(ptr noundef %19, i32 noundef %20)
  store ptr %21, ptr %4, align 8
  %22 = icmp ne ptr %21, null
  br label %23

23:                                               ; preds = %18, %13
  %24 = phi i1 [ false, %13 ], [ %22, %18 ]
  br i1 %24, label %25, label %34

25:                                               ; preds = %23
  %26 = load ptr, ptr %4, align 8
  %27 = call ptr @Gia_ObjFanin0(ptr noundef %26)
  %28 = load i64, ptr %27, align 4
  %29 = and i64 %28, -1073741825
  %30 = or i64 %29, 1073741824
  store i64 %30, ptr %27, align 4
  br label %31

31:                                               ; preds = %25
  %32 = load i32, ptr %5, align 4
  %33 = add nsw i32 %32, 1
  store i32 %33, ptr %5, align 4
  br label %13, !llvm.loop !25

34:                                               ; preds = %23
  store i32 0, ptr %5, align 4
  br label %35

35:                                               ; preds = %66, %34
  %36 = load i32, ptr %5, align 4
  %37 = load ptr, ptr %3, align 8
  %38 = getelementptr inbounds %struct.Gia_Man_t_, ptr %37, i32 0, i32 4
  %39 = load i32, ptr %38, align 8
  %40 = icmp slt i32 %36, %39
  br i1 %40, label %41, label %46

41:                                               ; preds = %35
  %42 = load ptr, ptr %3, align 8
  %43 = load i32, ptr %5, align 4
  %44 = call ptr @Gia_ManObj(ptr noundef %42, i32 noundef %43)
  store ptr %44, ptr %4, align 8
  %45 = icmp ne ptr %44, null
  br label %46

46:                                               ; preds = %41, %35
  %47 = phi i1 [ false, %35 ], [ %45, %41 ]
  br i1 %47, label %48, label %69

48:                                               ; preds = %46
  %49 = load ptr, ptr %4, align 8
  %50 = call i32 @Gia_ObjIsCand(ptr noundef %49)
  %51 = icmp ne i32 %50, 0
  br i1 %51, label %52, label %65

52:                                               ; preds = %48
  %53 = load ptr, ptr %4, align 8
  %54 = load i64, ptr %53, align 4
  %55 = lshr i64 %54, 30
  %56 = and i64 %55, 1
  %57 = trunc i64 %56 to i32
  %58 = icmp ne i32 %57, 0
  br i1 %58, label %65, label %59

59:                                               ; preds = %52
  %60 = load ptr, ptr %3, align 8
  %61 = load i32, ptr %5, align 4
  %62 = call i32 @Gia_ObjRepr(ptr noundef %60, i32 noundef %61)
  %63 = icmp ne i32 %62, 268435455
  br i1 %63, label %64, label %65

64:                                               ; preds = %59
  store i32 1, ptr %6, align 4
  br label %69

65:                                               ; preds = %59, %52, %48
  br label %66

66:                                               ; preds = %65
  %67 = load i32, ptr %5, align 4
  %68 = add nsw i32 %67, 1
  store i32 %68, ptr %5, align 4
  br label %35, !llvm.loop !26

69:                                               ; preds = %64, %46
  store i32 0, ptr %5, align 4
  br label %70

70:                                               ; preds = %88, %69
  %71 = load i32, ptr %5, align 4
  %72 = load ptr, ptr %3, align 8
  %73 = call i32 @Gia_ManPoNum(ptr noundef %72)
  %74 = icmp slt i32 %71, %73
  br i1 %74, label %75, label %80

75:                                               ; preds = %70
  %76 = load ptr, ptr %3, align 8
  %77 = load i32, ptr %5, align 4
  %78 = call ptr @Gia_ManCo(ptr noundef %76, i32 noundef %77)
  store ptr %78, ptr %4, align 8
  %79 = icmp ne ptr %78, null
  br label %80

80:                                               ; preds = %75, %70
  %81 = phi i1 [ false, %70 ], [ %79, %75 ]
  br i1 %81, label %82, label %91

82:                                               ; preds = %80
  %83 = load ptr, ptr %4, align 8
  %84 = call ptr @Gia_ObjFanin0(ptr noundef %83)
  %85 = load i64, ptr %84, align 4
  %86 = and i64 %85, -1073741825
  %87 = or i64 %86, 0
  store i64 %87, ptr %84, align 4
  br label %88

88:                                               ; preds = %82
  %89 = load i32, ptr %5, align 4
  %90 = add nsw i32 %89, 1
  store i32 %90, ptr %5, align 4
  br label %70, !llvm.loop !27

91:                                               ; preds = %80
  %92 = load i32, ptr %6, align 4
  store i32 %92, ptr %2, align 4
  br label %93

93:                                               ; preds = %91, %11
  %94 = load i32, ptr %2, align 4
  ret i32 %94
}