; Function Attrs: nofree norecurse nosync nounwind memory(readwrite, inaccessiblemem: none) uwtable
define range(i32 0, 2) i32 @Cec_ManCheckNonTrivialCands(ptr noundef readonly captures(none) %0) local_unnamed_addr #3 {
  %2 = getelementptr inbounds nuw i8, ptr %0, i64 192
  %3 = load ptr, ptr %2, align 8
  %4 = icmp eq ptr %3, null
  br i1 %4, label %.critedge4, label %.preheader

.preheader:                                       ; preds = %1
  %5 = getelementptr i8, ptr %0, i64 32
  %6 = getelementptr i8, ptr %0, i64 16
  %7 = getelementptr i8, ptr %0, i64 72
  %.val3848 = load i32, ptr %6, align 8
  %.val3949 = load ptr, ptr %7, align 8
  %8 = getelementptr i8, ptr %.val3949, i64 4
  %.val39.val50 = load i32, ptr %8, align 4
  %9 = icmp sgt i32 %.val39.val50, %.val3848
  br i1 %9, label %.lr.ph.preheader, label %.critedge

.lr.ph.preheader:                                 ; preds = %.preheader
  %.val4379 = load ptr, ptr %5, align 8
  %.not80 = icmp eq ptr %.val4379, null
  br i1 %.not80, label %.critedge, label %.lr.ph84

.lr.ph:                                           ; preds = %.lr.ph84
  %.val43 = load ptr, ptr %5, align 8
  %.not = icmp eq ptr %.val43, null
  br i1 %.not, label %.critedge, label %.lr.ph84, !llvm.loop !25

.lr.ph84:                                         ; preds = %.lr.ph.preheader, %.lr.ph
  %.val4383 = phi ptr [ %.val43, %.lr.ph ], [ %.val4379, %.lr.ph.preheader ]
  %.val395282 = phi ptr [ %.val39, %.lr.ph ], [ %.val3949, %.lr.ph.preheader ]
  %indvars.iv81 = phi i64 [ %indvars.iv.next, %.lr.ph ], [ 0, %.lr.ph.preheader ]
  %10 = getelementptr i8, ptr %.val395282, i64 8
  %.val44.val = load ptr, ptr %10, align 8
  %11 = getelementptr inbounds nuw i32, ptr %.val44.val, i64 %indvars.iv81
  %12 = load i32, ptr %11, align 4
  %13 = sext i32 %12 to i64
  %14 = getelementptr inbounds %struct.Gia_Obj_t_, ptr %.val4383, i64 %13
  %15 = load i64, ptr %14, align 4
  %16 = and i64 %15, 536870911
  %17 = sub nsw i64 0, %16
  %18 = getelementptr inbounds %struct.Gia_Obj_t_, ptr %14, i64 %17
  %19 = load i64, ptr %18, align 4
  %20 = or i64 %19, 1073741824
  store i64 %20, ptr %18, align 4
  %indvars.iv.next = add nuw nsw i64 %indvars.iv81, 1
  %.val38 = load i32, ptr %6, align 8
  %.val39 = load ptr, ptr %7, align 8
  %21 = getelementptr i8, ptr %.val39, i64 4
  %.val39.val = load i32, ptr %21, align 4
  %22 = sub nsw i32 %.val39.val, %.val38
  %23 = sext i32 %22 to i64
  %24 = icmp slt i64 %indvars.iv.next, %23
  br i1 %24, label %.lr.ph, label %.critedge, !llvm.loop !25

.critedge:                                        ; preds = %.lr.ph84, %.lr.ph, %.lr.ph.preheader, %.preheader
  %.val3761 = phi ptr [ %.val3949, %.preheader ], [ %.val3949, %.lr.ph.preheader ], [ %.val39, %.lr.ph ], [ %.val39, %.lr.ph84 ]
  %.val60 = phi i32 [ %.val3848, %.preheader ], [ %.val3848, %.lr.ph.preheader ], [ %.val38, %.lr.ph ], [ %.val38, %.lr.ph84 ]
  %25 = getelementptr inbounds nuw i8, ptr %0, i64 24
  %26 = load i32, ptr %25, align 8
  %27 = icmp sgt i32 %26, 0
  br i1 %27, label %.lr.ph55, label %.critedge2

.lr.ph55:                                         ; preds = %.critedge
  %.val40 = load ptr, ptr %5, align 8
  %.not32 = icmp eq ptr %.val40, null
  br i1 %.not32, label %.critedge2, label %.lr.ph55.split.preheader

.lr.ph55.split.preheader:                         ; preds = %.lr.ph55
  %wide.trip.count = zext nneg i32 %26 to i64
  br label %.lr.ph55.split

.lr.ph55.split:                                   ; preds = %.lr.ph55.split.preheader, %38
  %indvars.iv68 = phi i64 [ 0, %.lr.ph55.split.preheader ], [ %indvars.iv.next69, %38 ]
  %28 = getelementptr inbounds nuw %struct.Gia_Obj_t_, ptr %.val40, i64 %indvars.iv68
  %.val46 = load i64, ptr %28, align 4
  %29 = and i64 %.val46, 2147483648
  %.not.i.i = icmp eq i64 %29, 0
  %30 = and i64 %.val46, 536870911
  %31 = icmp ne i64 %30, 536870911
  %narrow.i.not.not.i = and i1 %.not.i.i, %31
  %32 = and i64 %.val46, 2684354559
  %narrow.i3.i = icmp eq i64 %32, 2684354559
  %narrow.i = or i1 %narrow.i3.i, %narrow.i.not.not.i
  %33 = and i64 %.val46, 1073741824
  %.not34 = icmp eq i64 %33, 0
  %or.cond = and i1 %.not34, %narrow.i
  br i1 %or.cond, label %34, label %38

34:                                               ; preds = %.lr.ph55.split
  %.val45 = load ptr, ptr %2, align 8
  %35 = getelementptr inbounds nuw %struct.Gia_Rpr_t_, ptr %.val45, i64 %indvars.iv68
  %36 = load i32, ptr %35, align 4
  %37 = and i32 %36, 268435455
  %.not35 = icmp eq i32 %37, 268435455
  br i1 %.not35, label %38, label %.critedge2

38:                                               ; preds = %.lr.ph55.split, %34
  %indvars.iv.next69 = add nuw nsw i64 %indvars.iv68, 1
  %exitcond.not = icmp eq i64 %indvars.iv.next69, %wide.trip.count
  br i1 %exitcond.not, label %.critedge2, label %.lr.ph55.split, !llvm.loop !26

.critedge2:                                       ; preds = %38, %34, %.lr.ph55, %.critedge
  %.0 = phi i32 [ 0, %.critedge ], [ 0, %.lr.ph55 ], [ 1, %34 ], [ 0, %38 ]
  %39 = getelementptr i8, ptr %.val3761, i64 4
  %.val37.val62 = load i32, ptr %39, align 4
  %40 = icmp sgt i32 %.val37.val62, %.val60
  br i1 %40, label %.lr.ph65, label %.critedge4

.lr.ph65:                                         ; preds = %.critedge2, %41
  %indvars.iv71 = phi i64 [ %indvars.iv.next72, %41 ], [ 0, %.critedge2 ]
  %.val3764 = phi ptr [ %.val37, %41 ], [ %.val3761, %.critedge2 ]
  %.val41 = load ptr, ptr %5, align 8
  %.not36 = icmp eq ptr %.val41, null
  br i1 %.not36, label %.critedge4, label %41

41:                                               ; preds = %.lr.ph65
  %42 = getelementptr i8, ptr %.val3764, i64 8
  %.val42.val = load ptr, ptr %42, align 8
  %43 = getelementptr inbounds nuw i32, ptr %.val42.val, i64 %indvars.iv71
  %44 = load i32, ptr %43, align 4
  %45 = sext i32 %44 to i64
  %46 = getelementptr inbounds %struct.Gia_Obj_t_, ptr %.val41, i64 %45
  %47 = load i64, ptr %46, align 4
  %48 = and i64 %47, 536870911
  %49 = sub nsw i64 0, %48
  %50 = getelementptr inbounds %struct.Gia_Obj_t_, ptr %46, i64 %49
  %51 = load i64, ptr %50, align 4
  %52 = and i64 %51, -1073741825
  store i64 %52, ptr %50, align 4
  %indvars.iv.next72 = add nuw nsw i64 %indvars.iv71, 1
  %.val = load i32, ptr %6, align 8
  %.val37 = load ptr, ptr %7, align 8
  %53 = getelementptr i8, ptr %.val37, i64 4
  %.val37.val = load i32, ptr %53, align 4
  %54 = sub nsw i32 %.val37.val, %.val
  %55 = sext i32 %54 to i64
  %56 = icmp slt i64 %indvars.iv.next72, %55
  br i1 %56, label %.lr.ph65, label %.critedge4, !llvm.loop !27

.critedge4:                                       ; preds = %41, %.lr.ph65, %.critedge2, %1
  %.028 = phi i32 [ 0, %1 ], [ %.0, %.critedge2 ], [ %.0, %.lr.ph65 ], [ %.0, %41 ]
  ret i32 %.028
}